CCS PCM C Compiler, Version 4.038, 62930               29-Nis-08 09:30

               Filename: C:\OKUL\TEZ\PÝC C\PROGRAM_5.1\7_segment_el.lst

               ROM used: 182 words (2%)
                         Largest free fragment is 2048
               RAM used: 11 (3%) at main() level
                         11 (3%) worst case
               Stack:    1 locations

*
0000:  MOVLW  00
0001:  MOVWF  0A
0002:  GOTO   027
0003:  NOP
.................... #include<16f877.h> 
.................... //////// Standard Header file for the PIC16F877 device //////////////// 
.................... #device PIC16F877 
.................... #list 
....................  
.................... #fuses xt,noprotect,nowdt 
.................... #use delay(clock=4000000) 
0012:  MOVLW  25
0013:  MOVWF  04
0014:  BCF    03.7
0015:  MOVF   00,W
0016:  BTFSC  03.2
0017:  GOTO   026
0018:  MOVLW  01
0019:  MOVWF  78
001A:  CLRF   77
001B:  DECFSZ 77,F
001C:  GOTO   01B
001D:  DECFSZ 78,F
001E:  GOTO   01A
001F:  MOVLW  4A
0020:  MOVWF  77
0021:  DECFSZ 77,F
0022:  GOTO   021
0023:  GOTO   024
0024:  DECFSZ 00,F
0025:  GOTO   018
0026:  RETLW  00
....................  
.................... void main() 
.................... { 
0027:  CLRF   04
0028:  BCF    03.7
0029:  MOVLW  1F
002A:  ANDWF  03,F
002B:  BSF    03.5
002C:  BSF    1F.0
002D:  BSF    1F.1
002E:  BSF    1F.2
002F:  BCF    1F.3
.................... int i=0,a=0,c=(-1),x=0; 
0030:  BCF    03.5
0031:  CLRF   21
0032:  CLRF   22
0033:  MOVLW  FF
0034:  MOVWF  23
0035:  CLRF   24
.................... const int8 bcd[10]={0x40,0x79,0x24,0x30,0x19,0x12,0x02,0x78,0x00,0x10}; 
.................... output_b(0x00); 
0036:  BSF    03.5
0037:  CLRF   06
0038:  BCF    03.5
0039:  CLRF   06
.................... output_d(0x00); 
003A:  BSF    03.5
003B:  CLRF   08
003C:  BCF    03.5
003D:  CLRF   08
....................  
.................... goster: 
....................    for(x=0;x<50;++x)                    // sayýyý ekranda 30 defa göster     
003E:  CLRF   24
003F:  MOVF   24,W
0040:  SUBLW  31
0041:  BTFSS  03.0
0042:  GOTO   06F
....................  {             output_low(pin_d0);      
0043:  BSF    03.5
0044:  BCF    08.0
0045:  BCF    03.5
0046:  BCF    08.0
....................                output_high(pin_d1); 
0047:  BSF    03.5
0048:  BCF    08.1
0049:  BCF    03.5
004A:  BSF    08.1
....................                output_b(bcd[i]); 
004B:  MOVF   21,W
004C:  CALL   004
004D:  MOVWF  25
004E:  BSF    03.5
004F:  CLRF   06
0050:  BCF    03.5
0051:  MOVF   25,W
0052:  MOVWF  06
....................                delay_ms(5); 
0053:  MOVLW  05
0054:  MOVWF  25
0055:  CALL   012
....................                output_low(pin_d1); 
0056:  BSF    03.5
0057:  BCF    08.1
0058:  BCF    03.5
0059:  BCF    08.1
....................                output_high(pin_d0);           
005A:  BSF    03.5
005B:  BCF    08.0
005C:  BCF    03.5
005D:  BSF    08.0
....................                output_b(bcd[a]); 
005E:  MOVF   22,W
005F:  CALL   004
0060:  MOVWF  25
0061:  BSF    03.5
0062:  CLRF   06
0063:  BCF    03.5
0064:  MOVF   25,W
0065:  MOVWF  06
....................                delay_ms(5); 
0066:  MOVLW  05
0067:  MOVWF  25
0068:  CALL   012
....................                output_low(pin_d0); 
0069:  BSF    03.5
006A:  BCF    08.0
006B:  BCF    03.5
006C:  BCF    08.0
....................                } 
006D:  INCF   24,F
006E:  GOTO   03F
....................       goto ana; 
006F:  GOTO   070
....................  
....................  
.................... ana: 
....................    if(input(pin_a0)==1) 
0070:  BSF    03.5
0071:  BSF    05.0
0072:  BCF    03.5
0073:  BTFSS  05.0
0074:  GOTO   085
....................                 { delay_ms(50); 
0075:  MOVLW  32
0076:  MOVWF  25
0077:  CALL   012
....................                   i++; 
0078:  INCF   21,F
....................                   if(i==10){i=0;a++;} 
0079:  MOVF   21,W
007A:  SUBLW  0A
007B:  BTFSS  03.2
007C:  GOTO   07F
007D:  CLRF   21
007E:  INCF   22,F
....................                   if(a==10) 
007F:  MOVF   22,W
0080:  SUBLW  0A
0081:  BTFSS  03.2
0082:  GOTO   084
....................                      {a=0;} 
0083:  CLRF   22
....................                   goto goster; 
0084:  GOTO   03E
....................                 } 
.................... if(input(pin_a1)==1) 
0085:  BSF    03.5
0086:  BSF    05.1
0087:  BCF    03.5
0088:  BTFSS  05.1
0089:  GOTO   0A9
....................                    {delay_ms(50); 
008A:  MOVLW  32
008B:  MOVWF  25
008C:  CALL   012
....................                    if(i==0 & a==0){i=10;a=9;} 
008D:  MOVF   21,F
008E:  BTFSC  03.2
008F:  GOTO   092
0090:  MOVLW  00
0091:  GOTO   093
0092:  MOVLW  01
0093:  MOVWF  25
0094:  MOVF   22,F
0095:  BTFSC  03.2
0096:  GOTO   099
0097:  MOVLW  00
0098:  GOTO   09A
0099:  MOVLW  01
009A:  ANDWF  25,W
009B:  BTFSC  03.2
009C:  GOTO   0A1
009D:  MOVLW  0A
009E:  MOVWF  21
009F:  MOVLW  09
00A0:  MOVWF  22
....................                    if(i==0){i=10;a--;} 
00A1:  MOVF   21,F
00A2:  BTFSS  03.2
00A3:  GOTO   0A7
00A4:  MOVLW  0A
00A5:  MOVWF  21
00A6:  DECF   22,F
....................                    i--; 
00A7:  DECF   21,F
....................                    goto goster; 
00A8:  GOTO   03E
....................                    } 
.................... if(input(pin_a2)==1) 
00A9:  BSF    03.5
00AA:  BSF    05.2
00AB:  BCF    03.5
00AC:  BTFSS  05.2
00AD:  GOTO   0B4
....................                    { delay_ms(50); 
00AE:  MOVLW  32
00AF:  MOVWF  25
00B0:  CALL   012
....................                    i=0;a=0; 
00B1:  CLRF   21
00B2:  CLRF   22
....................                    goto goster; 
00B3:  GOTO   03E
....................                    } 
....................           
.................... goto goster; 
00B4:  GOTO   03E
....................                      
.................... } 
00B5:  SLEEP

Configuration Fuses:
   Word  1: 3F71   XT NOWDT PUT NOPROTECT BROWNOUT NOLVP NOCPD NOWRT NODEBUG
