CCS PCM C Compiler, Version 4.038, 62930               20-May-08 08:43

               Filename: C:\OKUL\TEZ\PÝC C\PROGRAM_14\Step.lst

               ROM used: 118 words (1%)
                         Largest free fragment is 2048
               RAM used: 9 (2%) at main() level
                         9 (2%) worst case
               Stack:    1 locations

*
0000:  MOVLW  00
0001:  MOVWF  0A
0002:  GOTO   025
0003:  NOP
.................... #include<16f877.h> 
.................... //////// Standard Header file for the PIC16F877 device //////////////// 
.................... #device PIC16F877 
.................... #list 
....................  
.................... #fuses xt,noprotect,nowdt 
.................... #use delay(clock=4000000) 
0010:  MOVLW  22
0011:  MOVWF  04
0012:  BCF    03.7
0013:  MOVF   00,W
0014:  BTFSC  03.2
0015:  GOTO   024
0016:  MOVLW  01
0017:  MOVWF  78
0018:  CLRF   77
0019:  DECFSZ 77,F
001A:  GOTO   019
001B:  DECFSZ 78,F
001C:  GOTO   018
001D:  MOVLW  4A
001E:  MOVWF  77
001F:  DECFSZ 77,F
0020:  GOTO   01F
0021:  GOTO   022
0022:  DECFSZ 00,F
0023:  GOTO   016
0024:  RETLW  00
.................... #define step_i input(pin_B0)  
.................... #define step_g input(pin_B1) 
.................... int i=0; 
*
002E:  BCF    03.5
002F:  CLRF   20
.................... const int step_tablo[8]={ 
.................... 0b00000001, 
.................... 0b00000011, 
.................... 0b00000010, 
.................... 0b00000110, 
.................... 0b00000100, 
.................... 0b00001100, 
.................... 0b00001000, 
.................... 0b00001001 
.................... }; 
....................                            
....................       
.................... void main()         
.................... { set_tris_c(0x00); 
*
0025:  CLRF   04
0026:  BCF    03.7
0027:  MOVLW  1F
0028:  ANDWF  03,F
0029:  BSF    03.5
002A:  BSF    1F.0
002B:  BSF    1F.1
002C:  BSF    1F.2
002D:  BCF    1F.3
*
0030:  MOVLW  FF
0031:  MOVWF  21
0032:  MOVLW  00
0033:  BSF    03.5
0034:  MOVWF  07
0035:  BCF    03.5
0036:  MOVWF  21
.................... output_c(0); 
0037:  MOVWF  21
0038:  BSF    03.5
0039:  CLRF   07
003A:  BCF    03.5
003B:  CLRF   07
.................... while(1) 
.................... { 
.................... ///////////ileri step////////////// 
.................... if(step_i==1) 
003C:  BSF    03.5
003D:  BSF    06.0
003E:  BCF    03.5
003F:  BTFSS  06.0
0040:  GOTO   059
.................... {                          
.................... delay_ms(100); 
0041:  MOVLW  64
0042:  MOVWF  22
0043:  CALL   010
.................... i++; 
0044:  INCF   20,F
.................... step_tablo[i]; 
0045:  MOVF   20,W
0046:  CALL   004
0047:  MOVWF  78
.................... output_c(step_tablo[i]); 
0048:  MOVF   20,W
0049:  CALL   004
004A:  MOVWF  22
004B:  MOVLW  00
004C:  MOVWF  21
004D:  BSF    03.5
004E:  CLRF   07
004F:  BCF    03.5
0050:  MOVF   22,W
0051:  MOVWF  07
.................... delay_ms(100); 
0052:  MOVLW  64
0053:  MOVWF  22
0054:  CALL   010
.................... if(i==7)i=0;   
0055:  MOVF   20,W
0056:  SUBLW  07
0057:  BTFSC  03.2
0058:  CLRF   20
.................... }                        
....................  ///////////geri step//////////////             
.................... if(step_g==1)                                            
0059:  BSF    03.5
005A:  BSF    06.1
005B:  BCF    03.5
005C:  BTFSS  06.1
005D:  GOTO   074
.................... { 
.................... delay_ms(100);                      
005E:  MOVLW  64
005F:  MOVWF  22
0060:  CALL   010
.................... i--; 
0061:  DECF   20,F
.................... //step_tablo[i]; 
.................... output_c(step_tablo[i]); 
0062:  MOVF   20,W
0063:  CALL   004
0064:  MOVWF  22
0065:  MOVLW  00
0066:  MOVWF  21
0067:  BSF    03.5
0068:  CLRF   07
0069:  BCF    03.5
006A:  MOVF   22,W
006B:  MOVWF  07
.................... delay_ms(100); 
006C:  MOVLW  64
006D:  MOVWF  22
006E:  CALL   010
.................... if(i==0)i=7;   
006F:  MOVF   20,F
0070:  BTFSS  03.2
0071:  GOTO   074
0072:  MOVLW  07
0073:  MOVWF  20
.................... } 
.................... } 
0074:  GOTO   03C
.................... } 
....................                                  
0075:  SLEEP

Configuration Fuses:
   Word  1: 3F71   XT NOWDT PUT NOPROTECT BROWNOUT NOLVP NOCPD NOWRT NODEBUG
