CCS PCM C Compiler, Version 4.038, 62930               01-May-08 13:06

               Filename: C:\OKUL\TEZ\PÝC C\PROGRAM_7\kesme_rb0.lst

               ROM used: 126 words (2%)
                         Largest free fragment is 2048
               RAM used: 17 (5%) at main() level
                         18 (5%) worst case
               Stack:    2 worst case (0 in main + 2 for interrupts)

*
0000:  MOVLW  00
0001:  MOVWF  0A
0002:  GOTO   06A
0003:  NOP
0004:  MOVWF  7F
0005:  SWAPF  03,W
0006:  CLRF   03
0007:  MOVWF  21
0008:  MOVF   0A,W
0009:  MOVWF  20
000A:  CLRF   0A
000B:  MOVF   04,W
000C:  MOVWF  22
000D:  MOVF   77,W
000E:  MOVWF  23
000F:  MOVF   78,W
0010:  MOVWF  24
0011:  MOVF   79,W
0012:  MOVWF  25
0013:  MOVF   7A,W
0014:  MOVWF  26
0015:  MOVF   7B,W
0016:  MOVWF  27
0017:  BCF    03.7
0018:  BCF    03.5
0019:  BTFSS  0B.4
001A:  GOTO   01D
001B:  BTFSC  0B.1
001C:  GOTO   030
001D:  MOVF   22,W
001E:  MOVWF  04
001F:  MOVF   23,W
0020:  MOVWF  77
0021:  MOVF   24,W
0022:  MOVWF  78
0023:  MOVF   25,W
0024:  MOVWF  79
0025:  MOVF   26,W
0026:  MOVWF  7A
0027:  MOVF   27,W
0028:  MOVWF  7B
0029:  MOVF   20,W
002A:  MOVWF  0A
002B:  SWAPF  21,W
002C:  MOVWF  03
002D:  SWAPF  7F,F
002E:  SWAPF  7F,W
002F:  RETFIE
0030:  BCF    0A.3
0031:  BCF    0A.4
0032:  GOTO   048
.................... #include<16f877.h> 
.................... //////// Standard Header file for the PIC16F877 device //////////////// 
.................... #device PIC16F877 
.................... #list 
....................  
.................... #fuses xt,noprotect,nowdt 
.................... #use delay(clock=40000000) 
0033:  MOVLW  2B
0034:  MOVWF  04
0035:  BCF    03.7
0036:  MOVF   00,W
0037:  BTFSC  03.2
0038:  GOTO   047
0039:  MOVLW  0C
003A:  MOVWF  78
003B:  CLRF   77
003C:  DECFSZ 77,F
003D:  GOTO   03C
003E:  DECFSZ 78,F
003F:  GOTO   03B
0040:  MOVLW  F7
0041:  MOVWF  77
0042:  DECFSZ 77,F
0043:  GOTO   042
0044:  GOTO   045
0045:  DECFSZ 00,F
0046:  GOTO   039
0047:  RETLW  00
.................... int i,a; 
.................... #int_ext                        //harici kesmeyi aktif et(RB0 için) 
.................... void rb0_kesme()                // rb0_kesme dizini oluþtur(istenilen isim verilebilir) 
.................... {                      
....................   for(i=0;i<10;i++) 
0048:  CLRF   28
0049:  MOVF   28,W
004A:  SUBLW  09
004B:  BTFSS  03.0
004C:  GOTO   066
....................  
....................       { 
....................         a=0xff; 
004D:  MOVLW  FF
004E:  MOVWF  29
....................         output_c(a);                      
004F:  MOVLW  00
0050:  MOVWF  2A
0051:  BSF    03.5
0052:  CLRF   07
0053:  BCF    03.5
0054:  MOVF   29,W
0055:  MOVWF  07
*
0073:  MOVLW  FF
0074:  BCF    03.5
0075:  MOVWF  2A
....................         delay_ms(200); 
*
0056:  MOVLW  C8
0057:  MOVWF  2B
0058:  CALL   033
....................         a=0x00;                                                          
0059:  CLRF   29
....................         output_C(a); 
005A:  MOVLW  00
005B:  MOVWF  2A
005C:  BSF    03.5
005D:  CLRF   07
005E:  BCF    03.5
005F:  MOVF   29,W
0060:  MOVWF  07
....................         delay_ms(200); 
0061:  MOVLW  C8
0062:  MOVWF  2B
0063:  CALL   033
....................       } 
0064:  INCF   28,F
0065:  GOTO   049
.................... } 
....................  
0066:  BCF    0B.1
0067:  BCF    0A.3
0068:  BCF    0A.4
0069:  GOTO   01D
.................... void main() 
.................... { 
006A:  CLRF   04
006B:  BCF    03.7
006C:  MOVLW  1F
006D:  ANDWF  03,F
006E:  BSF    03.5
006F:  BSF    1F.0
0070:  BSF    1F.1
0071:  BSF    1F.2
0072:  BCF    1F.3
.................... ext_int_edge(h_to_l) ;          //kesme iþlemini yükselen kenardan düþen kenara doðru iken algýla 
*
0076:  BSF    03.5
0077:  BCF    01.6
.................... enable_interrupts(int_ext);     //harici kesmeyi aktif et 
0078:  BCF    03.5
0079:  BSF    0B.4
.................... enable_interrupts(global);      //tüm kesmeleri izin ver                         
007A:  MOVLW  C0
007B:  IORWF  0B,F
.................... while(1);                       //sonsuz döngü(sürekli yap)                        
007C:  GOTO   07C
.................... }                                                   
007D:  SLEEP

Configuration Fuses:
   Word  1: 3F71   XT NOWDT PUT NOPROTECT BROWNOUT NOLVP NOCPD NOWRT NODEBUG
